target datalayout = "e-m:e-p270:32:32-p271:32:32-p272:64:64-i64:64-i128:128-f80:128-n8:16:32:64-S128"
target triple = "x86_64-pc-linux-gnu"

%"struct.OpenColorIO_v2_5dev::GradingRGBMSW" = type { double, double, double, double, double, double }
%"struct.OpenColorIO_v2_5dev::GradingTone" = type { %"struct.OpenColorIO_v2_5dev::GradingRGBMSW", %"struct.OpenColorIO_v2_5dev::GradingRGBMSW", %"struct.OpenColorIO_v2_5dev::GradingRGBMSW", %"struct.OpenColorIO_v2_5dev::GradingRGBMSW", %"struct.OpenColorIO_v2_5dev::GradingRGBMSW", double }

; Function Attrs: mustprogress nounwind uwtable
define noundef zeroext i1 @_ZN19OpenColorIO_v2_5deveqERKNS_13GradingRGBMSWES2_(ptr noundef nonnull align 8 dereferenceable(48) %0, ptr noundef nonnull align 8 dereferenceable(48) %1) #4 {
  %3 = alloca ptr, align 8
  %4 = alloca ptr, align 8
  store ptr %0, ptr %3, align 8, !tbaa !3
  store ptr %1, ptr %4, align 8, !tbaa !3
  %5 = load ptr, ptr %3, align 8, !tbaa !3
  %6 = getelementptr inbounds nuw %"struct.OpenColorIO_v2_5dev::GradingRGBMSW", ptr %5, i32 0, i32 0
  %7 = load double, ptr %6, align 8, !tbaa !8
  %8 = load ptr, ptr %4, align 8, !tbaa !3
  %9 = getelementptr inbounds nuw %"struct.OpenColorIO_v2_5dev::GradingRGBMSW", ptr %8, i32 0, i32 0
  %10 = load double, ptr %9, align 8, !tbaa !8
  %11 = fcmp oeq double %7, %10
  br i1 %11, label %12, label %52

12:                                               ; preds = %2
  %13 = load ptr, ptr %3, align 8, !tbaa !3
  %14 = getelementptr inbounds nuw %"struct.OpenColorIO_v2_5dev::GradingRGBMSW", ptr %13, i32 0, i32 1
  %15 = load double, ptr %14, align 8, !tbaa !11
  %16 = load ptr, ptr %4, align 8, !tbaa !3
  %17 = getelementptr inbounds nuw %"struct.OpenColorIO_v2_5dev::GradingRGBMSW", ptr %16, i32 0, i32 1
  %18 = load double, ptr %17, align 8, !tbaa !11
  %19 = fcmp oeq double %15, %18
  br i1 %19, label %20, label %52

20:                                               ; preds = %12
  %21 = load ptr, ptr %3, align 8, !tbaa !3
  %22 = getelementptr inbounds nuw %"struct.OpenColorIO_v2_5dev::GradingRGBMSW", ptr %21, i32 0, i32 2
  %23 = load double, ptr %22, align 8, !tbaa !12
  %24 = load ptr, ptr %4, align 8, !tbaa !3
  %25 = getelementptr inbounds nuw %"struct.OpenColorIO_v2_5dev::GradingRGBMSW", ptr %24, i32 0, i32 2
  %26 = load double, ptr %25, align 8, !tbaa !12
  %27 = fcmp oeq double %23, %26
  br i1 %27, label %28, label %52

28:                                               ; preds = %20
  %29 = load ptr, ptr %3, align 8, !tbaa !3
  %30 = getelementptr inbounds nuw %"struct.OpenColorIO_v2_5dev::GradingRGBMSW", ptr %29, i32 0, i32 3
  %31 = load double, ptr %30, align 8, !tbaa !13
  %32 = load ptr, ptr %4, align 8, !tbaa !3
  %33 = getelementptr inbounds nuw %"struct.OpenColorIO_v2_5dev::GradingRGBMSW", ptr %32, i32 0, i32 3
  %34 = load double, ptr %33, align 8, !tbaa !13
  %35 = fcmp oeq double %31, %34
  br i1 %35, label %36, label %52

36:                                               ; preds = %28
  %37 = load ptr, ptr %3, align 8, !tbaa !3
  %38 = getelementptr inbounds nuw %"struct.OpenColorIO_v2_5dev::GradingRGBMSW", ptr %37, i32 0, i32 4
  %39 = load double, ptr %38, align 8, !tbaa !14
  %40 = load ptr, ptr %4, align 8, !tbaa !3
  %41 = getelementptr inbounds nuw %"struct.OpenColorIO_v2_5dev::GradingRGBMSW", ptr %40, i32 0, i32 4
  %42 = load double, ptr %41, align 8, !tbaa !14
  %43 = fcmp oeq double %39, %42
  br i1 %43, label %44, label %52

44:                                               ; preds = %36
  %45 = load ptr, ptr %3, align 8, !tbaa !3
  %46 = getelementptr inbounds nuw %"struct.OpenColorIO_v2_5dev::GradingRGBMSW", ptr %45, i32 0, i32 5
  %47 = load double, ptr %46, align 8, !tbaa !15
  %48 = load ptr, ptr %4, align 8, !tbaa !3
  %49 = getelementptr inbounds nuw %"struct.OpenColorIO_v2_5dev::GradingRGBMSW", ptr %48, i32 0, i32 5
  %50 = load double, ptr %49, align 8, !tbaa !15
  %51 = fcmp oeq double %47, %50
  br label %52

52:                                               ; preds = %44, %36, %28, %20, %12, %2
  %53 = phi i1 [ false, %36 ], [ false, %28 ], [ false, %20 ], [ false, %12 ], [ false, %2 ], [ %51, %44 ]
  ret i1 %53
}

; Function Attrs: mustprogress nounwind uwtable
define noundef zeroext i1 @_ZN19OpenColorIO_v2_5deveqERKNS_11GradingToneES2_(ptr noundef nonnull align 8 dereferenceable(248) %0, ptr noundef nonnull align 8 dereferenceable(248) %1) #4 {
  %3 = alloca ptr, align 8
  %4 = alloca ptr, align 8
  store ptr %0, ptr %3, align 8, !tbaa !16
  store ptr %1, ptr %4, align 8, !tbaa !16
  %5 = load ptr, ptr %3, align 8, !tbaa !16
  %6 = getelementptr inbounds nuw %"struct.OpenColorIO_v2_5dev::GradingTone", ptr %5, i32 0, i32 0
  %7 = load ptr, ptr %4, align 8, !tbaa !16
  %8 = getelementptr inbounds nuw %"struct.OpenColorIO_v2_5dev::GradingTone", ptr %7, i32 0, i32 0
  %9 = call noundef zeroext i1 @_ZN19OpenColorIO_v2_5deveqERKNS_13GradingRGBMSWES2_(ptr noundef nonnull align 8 dereferenceable(48) %6, ptr noundef nonnull align 8 dereferenceable(48) %8)
  br i1 %9, label %10, label %42

10:                                               ; preds = %2
  %11 = load ptr, ptr %3, align 8, !tbaa !16
  %12 = getelementptr inbounds nuw %"struct.OpenColorIO_v2_5dev::GradingTone", ptr %11, i32 0, i32 4
  %13 = load ptr, ptr %4, align 8, !tbaa !16
  %14 = getelementptr inbounds nuw %"struct.OpenColorIO_v2_5dev::GradingTone", ptr %13, i32 0, i32 4
  %15 = call noundef zeroext i1 @_ZN19OpenColorIO_v2_5deveqERKNS_13GradingRGBMSWES2_(ptr noundef nonnull align 8 dereferenceable(48) %12, ptr noundef nonnull align 8 dereferenceable(48) %14)
  br i1 %15, label %16, label %42

16:                                               ; preds = %10
  %17 = load ptr, ptr %3, align 8, !tbaa !16
  %18 = getelementptr inbounds nuw %"struct.OpenColorIO_v2_5dev::GradingTone", ptr %17, i32 0, i32 3
  %19 = load ptr, ptr %4, align 8, !tbaa !16
  %20 = getelementptr inbounds nuw %"struct.OpenColorIO_v2_5dev::GradingTone", ptr %19, i32 0, i32 3
  %21 = call noundef zeroext i1 @_ZN19OpenColorIO_v2_5deveqERKNS_13GradingRGBMSWES2_(ptr noundef nonnull align 8 dereferenceable(48) %18, ptr noundef nonnull align 8 dereferenceable(48) %20)
  br i1 %21, label %22, label %42

22:                                               ; preds = %16
  %23 = load ptr, ptr %3, align 8, !tbaa !16
  %24 = getelementptr inbounds nuw %"struct.OpenColorIO_v2_5dev::GradingTone", ptr %23, i32 0, i32 2
  %25 = load ptr, ptr %4, align 8, !tbaa !16
  %26 = getelementptr inbounds nuw %"struct.OpenColorIO_v2_5dev::GradingTone", ptr %25, i32 0, i32 2
  %27 = call noundef zeroext i1 @_ZN19OpenColorIO_v2_5deveqERKNS_13GradingRGBMSWES2_(ptr noundef nonnull align 8 dereferenceable(48) %24, ptr noundef nonnull align 8 dereferenceable(48) %26)
  br i1 %27, label %28, label %42

28:                                               ; preds = %22
  %29 = load ptr, ptr %3, align 8, !tbaa !16
  %30 = getelementptr inbounds nuw %"struct.OpenColorIO_v2_5dev::GradingTone", ptr %29, i32 0, i32 1
  %31 = load ptr, ptr %4, align 8, !tbaa !16
  %32 = getelementptr inbounds nuw %"struct.OpenColorIO_v2_5dev::GradingTone", ptr %31, i32 0, i32 1
  %33 = call noundef zeroext i1 @_ZN19OpenColorIO_v2_5deveqERKNS_13GradingRGBMSWES2_(ptr noundef nonnull align 8 dereferenceable(48) %30, ptr noundef nonnull align 8 dereferenceable(48) %32)
  br i1 %33, label %34, label %42

34:                                               ; preds = %28
  %35 = load ptr, ptr %3, align 8, !tbaa !16
  %36 = getelementptr inbounds nuw %"struct.OpenColorIO_v2_5dev::GradingTone", ptr %35, i32 0, i32 5
  %37 = load double, ptr %36, align 8, !tbaa !18
  %38 = load ptr, ptr %4, align 8, !tbaa !16
  %39 = getelementptr inbounds nuw %"struct.OpenColorIO_v2_5dev::GradingTone", ptr %38, i32 0, i32 5
  %40 = load double, ptr %39, align 8, !tbaa !18
  %41 = fcmp oeq double %37, %40
  br label %42

42:                                               ; preds = %34, %28, %22, %16, %10, %2
  %43 = phi i1 [ false, %28 ], [ false, %22 ], [ false, %16 ], [ false, %10 ], [ false, %2 ], [ %41, %34 ]
  ret i1 %43
}