; Function Attrs: mustprogress nofree norecurse nosync nounwind willreturn memory(argmem: read) uwtable
define noundef zeroext i1 @_ZN19OpenColorIO_v2_5deveqERKNS_11GradingToneES2_(ptr noundef nonnull readonly align 8 captures(none) dereferenceable(248) %0, ptr noundef nonnull readonly align 8 captures(none) dereferenceable(248) %1) local_unnamed_addr #3 {
  %3 = load double, ptr %0, align 8, !tbaa !3
  %4 = load double, ptr %1, align 8, !tbaa !3
  %5 = fcmp oeq double %3, %4
  br i1 %5, label %6, label %_ZN19OpenColorIO_v2_5deveqERKNS_13GradingRGBMSWES2_.exit.thread

6:                                                ; preds = %2
  %7 = getelementptr inbounds nuw i8, ptr %0, i64 8
  %8 = load double, ptr %7, align 8, !tbaa !8
  %9 = getelementptr inbounds nuw i8, ptr %1, i64 8
  %10 = load double, ptr %9, align 8, !tbaa !8
  %11 = fcmp oeq double %8, %10
  br i1 %11, label %12, label %_ZN19OpenColorIO_v2_5deveqERKNS_13GradingRGBMSWES2_.exit.thread

12:                                               ; preds = %6
  %13 = getelementptr inbounds nuw i8, ptr %0, i64 16
  %14 = load double, ptr %13, align 8, !tbaa !9
  %15 = getelementptr inbounds nuw i8, ptr %1, i64 16
  %16 = load double, ptr %15, align 8, !tbaa !9
  %17 = fcmp oeq double %14, %16
  br i1 %17, label %18, label %_ZN19OpenColorIO_v2_5deveqERKNS_13GradingRGBMSWES2_.exit.thread

18:                                               ; preds = %12
  %19 = getelementptr inbounds nuw i8, ptr %0, i64 24
  %20 = load double, ptr %19, align 8, !tbaa !10
  %21 = getelementptr inbounds nuw i8, ptr %1, i64 24
  %22 = load double, ptr %21, align 8, !tbaa !10
  %23 = fcmp oeq double %20, %22
  br i1 %23, label %24, label %_ZN19OpenColorIO_v2_5deveqERKNS_13GradingRGBMSWES2_.exit.thread

24:                                               ; preds = %18
  %25 = getelementptr inbounds nuw i8, ptr %0, i64 32
  %26 = load double, ptr %25, align 8, !tbaa !11
  %27 = getelementptr inbounds nuw i8, ptr %1, i64 32
  %28 = load double, ptr %27, align 8, !tbaa !11
  %29 = fcmp oeq double %26, %28
  br i1 %29, label %_ZN19OpenColorIO_v2_5deveqERKNS_13GradingRGBMSWES2_.exit, label %_ZN19OpenColorIO_v2_5deveqERKNS_13GradingRGBMSWES2_.exit.thread

_ZN19OpenColorIO_v2_5deveqERKNS_13GradingRGBMSWES2_.exit: ; preds = %24
  %30 = getelementptr inbounds nuw i8, ptr %0, i64 40
  %31 = load double, ptr %30, align 8, !tbaa !12
  %32 = getelementptr inbounds nuw i8, ptr %1, i64 40
  %33 = load double, ptr %32, align 8, !tbaa !12
  %34 = fcmp oeq double %31, %33
  br i1 %34, label %35, label %_ZN19OpenColorIO_v2_5deveqERKNS_13GradingRGBMSWES2_.exit.thread

35:                                               ; preds = %_ZN19OpenColorIO_v2_5deveqERKNS_13GradingRGBMSWES2_.exit
  %36 = getelementptr inbounds nuw i8, ptr %0, i64 192
  %37 = getelementptr inbounds nuw i8, ptr %1, i64 192
  %38 = load double, ptr %36, align 8, !tbaa !3
  %39 = load double, ptr %37, align 8, !tbaa !3
  %40 = fcmp oeq double %38, %39
  br i1 %40, label %41, label %_ZN19OpenColorIO_v2_5deveqERKNS_13GradingRGBMSWES2_.exit.thread

41:                                               ; preds = %35
  %42 = getelementptr inbounds nuw i8, ptr %0, i64 200
  %43 = load double, ptr %42, align 8, !tbaa !8
  %44 = getelementptr inbounds nuw i8, ptr %1, i64 200
  %45 = load double, ptr %44, align 8, !tbaa !8
  %46 = fcmp oeq double %43, %45
  br i1 %46, label %47, label %_ZN19OpenColorIO_v2_5deveqERKNS_13GradingRGBMSWES2_.exit.thread

47:                                               ; preds = %41
  %48 = getelementptr inbounds nuw i8, ptr %0, i64 208
  %49 = load double, ptr %48, align 8, !tbaa !9
  %50 = getelementptr inbounds nuw i8, ptr %1, i64 208
  %51 = load double, ptr %50, align 8, !tbaa !9
  %52 = fcmp oeq double %49, %51
  br i1 %52, label %53, label %_ZN19OpenColorIO_v2_5deveqERKNS_13GradingRGBMSWES2_.exit.thread

53:                                               ; preds = %47
  %54 = getelementptr inbounds nuw i8, ptr %0, i64 216
  %55 = load double, ptr %54, align 8, !tbaa !10
  %56 = getelementptr inbounds nuw i8, ptr %1, i64 216
  %57 = load double, ptr %56, align 8, !tbaa !10
  %58 = fcmp oeq double %55, %57
  br i1 %58, label %59, label %_ZN19OpenColorIO_v2_5deveqERKNS_13GradingRGBMSWES2_.exit.thread

59:                                               ; preds = %53
  %60 = getelementptr inbounds nuw i8, ptr %0, i64 224
  %61 = load double, ptr %60, align 8, !tbaa !11
  %62 = getelementptr inbounds nuw i8, ptr %1, i64 224
  %63 = load double, ptr %62, align 8, !tbaa !11
  %64 = fcmp oeq double %61, %63
  br i1 %64, label %_ZN19OpenColorIO_v2_5deveqERKNS_13GradingRGBMSWES2_.exit12, label %_ZN19OpenColorIO_v2_5deveqERKNS_13GradingRGBMSWES2_.exit.thread

_ZN19OpenColorIO_v2_5deveqERKNS_13GradingRGBMSWES2_.exit12: ; preds = %59
  %65 = getelementptr inbounds nuw i8, ptr %0, i64 232
  %66 = load double, ptr %65, align 8, !tbaa !12
  %67 = getelementptr inbounds nuw i8, ptr %1, i64 232
  %68 = load double, ptr %67, align 8, !tbaa !12
  %69 = fcmp oeq double %66, %68
  br i1 %69, label %70, label %_ZN19OpenColorIO_v2_5deveqERKNS_13GradingRGBMSWES2_.exit.thread

70:                                               ; preds = %_ZN19OpenColorIO_v2_5deveqERKNS_13GradingRGBMSWES2_.exit12
  %71 = getelementptr inbounds nuw i8, ptr %0, i64 144
  %72 = getelementptr inbounds nuw i8, ptr %1, i64 144
  %73 = load double, ptr %71, align 8, !tbaa !3
  %74 = load double, ptr %72, align 8, !tbaa !3
  %75 = fcmp oeq double %73, %74
  br i1 %75, label %76, label %_ZN19OpenColorIO_v2_5deveqERKNS_13GradingRGBMSWES2_.exit.thread

76:                                               ; preds = %70
  %77 = getelementptr inbounds nuw i8, ptr %0, i64 152
  %78 = load double, ptr %77, align 8, !tbaa !8
  %79 = getelementptr inbounds nuw i8, ptr %1, i64 152
  %80 = load double, ptr %79, align 8, !tbaa !8
  %81 = fcmp oeq double %78, %80
  br i1 %81, label %82, label %_ZN19OpenColorIO_v2_5deveqERKNS_13GradingRGBMSWES2_.exit.thread

82:                                               ; preds = %76
  %83 = getelementptr inbounds nuw i8, ptr %0, i64 160
  %84 = load double, ptr %83, align 8, !tbaa !9
  %85 = getelementptr inbounds nuw i8, ptr %1, i64 160
  %86 = load double, ptr %85, align 8, !tbaa !9
  %87 = fcmp oeq double %84, %86
  br i1 %87, label %88, label %_ZN19OpenColorIO_v2_5deveqERKNS_13GradingRGBMSWES2_.exit.thread

88:                                               ; preds = %82
  %89 = getelementptr inbounds nuw i8, ptr %0, i64 168
  %90 = load double, ptr %89, align 8, !tbaa !10
  %91 = getelementptr inbounds nuw i8, ptr %1, i64 168
  %92 = load double, ptr %91, align 8, !tbaa !10
  %93 = fcmp oeq double %90, %92
  br i1 %93, label %94, label %_ZN19OpenColorIO_v2_5deveqERKNS_13GradingRGBMSWES2_.exit.thread

94:                                               ; preds = %88
  %95 = getelementptr inbounds nuw i8, ptr %0, i64 176
  %96 = load double, ptr %95, align 8, !tbaa !11
  %97 = getelementptr inbounds nuw i8, ptr %1, i64 176
  %98 = load double, ptr %97, align 8, !tbaa !11
  %99 = fcmp oeq double %96, %98
  br i1 %99, label %_ZN19OpenColorIO_v2_5deveqERKNS_13GradingRGBMSWES2_.exit13, label %_ZN19OpenColorIO_v2_5deveqERKNS_13GradingRGBMSWES2_.exit.thread

_ZN19OpenColorIO_v2_5deveqERKNS_13GradingRGBMSWES2_.exit13: ; preds = %94
  %100 = getelementptr inbounds nuw i8, ptr %0, i64 184
  %101 = load double, ptr %100, align 8, !tbaa !12
  %102 = getelementptr inbounds nuw i8, ptr %1, i64 184
  %103 = load double, ptr %102, align 8, !tbaa !12
  %104 = fcmp oeq double %101, %103
  br i1 %104, label %105, label %_ZN19OpenColorIO_v2_5deveqERKNS_13GradingRGBMSWES2_.exit.thread

105:                                              ; preds = %_ZN19OpenColorIO_v2_5deveqERKNS_13GradingRGBMSWES2_.exit13
  %106 = getelementptr inbounds nuw i8, ptr %0, i64 96
  %107 = getelementptr inbounds nuw i8, ptr %1, i64 96
  %108 = load double, ptr %106, align 8, !tbaa !3
  %109 = load double, ptr %107, align 8, !tbaa !3
  %110 = fcmp oeq double %108, %109
  br i1 %110, label %111, label %_ZN19OpenColorIO_v2_5deveqERKNS_13GradingRGBMSWES2_.exit.thread

111:                                              ; preds = %105
  %112 = getelementptr inbounds nuw i8, ptr %0, i64 104
  %113 = load double, ptr %112, align 8, !tbaa !8
  %114 = getelementptr inbounds nuw i8, ptr %1, i64 104
  %115 = load double, ptr %114, align 8, !tbaa !8
  %116 = fcmp oeq double %113, %115
  br i1 %116, label %117, label %_ZN19OpenColorIO_v2_5deveqERKNS_13GradingRGBMSWES2_.exit.thread

117:                                              ; preds = %111
  %118 = getelementptr inbounds nuw i8, ptr %0, i64 112
  %119 = load double, ptr %118, align 8, !tbaa !9
  %120 = getelementptr inbounds nuw i8, ptr %1, i64 112
  %121 = load double, ptr %120, align 8, !tbaa !9
  %122 = fcmp oeq double %119, %121
  br i1 %122, label %123, label %_ZN19OpenColorIO_v2_5deveqERKNS_13GradingRGBMSWES2_.exit.thread

123:                                              ; preds = %117
  %124 = getelementptr inbounds nuw i8, ptr %0, i64 120
  %125 = load double, ptr %124, align 8, !tbaa !10
  %126 = getelementptr inbounds nuw i8, ptr %1, i64 120
  %127 = load double, ptr %126, align 8, !tbaa !10
  %128 = fcmp oeq double %125, %127
  br i1 %128, label %129, label %_ZN19OpenColorIO_v2_5deveqERKNS_13GradingRGBMSWES2_.exit.thread

129:                                              ; preds = %123
  %130 = getelementptr inbounds nuw i8, ptr %0, i64 128
  %131 = load double, ptr %130, align 8, !tbaa !11
  %132 = getelementptr inbounds nuw i8, ptr %1, i64 128
  %133 = load double, ptr %132, align 8, !tbaa !11
  %134 = fcmp oeq double %131, %133
  br i1 %134, label %_ZN19OpenColorIO_v2_5deveqERKNS_13GradingRGBMSWES2_.exit14, label %_ZN19OpenColorIO_v2_5deveqERKNS_13GradingRGBMSWES2_.exit.thread

_ZN19OpenColorIO_v2_5deveqERKNS_13GradingRGBMSWES2_.exit14: ; preds = %129
  %135 = getelementptr inbounds nuw i8, ptr %0, i64 136
  %136 = load double, ptr %135, align 8, !tbaa !12
  %137 = getelementptr inbounds nuw i8, ptr %1, i64 136
  %138 = load double, ptr %137, align 8, !tbaa !12
  %139 = fcmp oeq double %136, %138
  br i1 %139, label %140, label %_ZN19OpenColorIO_v2_5deveqERKNS_13GradingRGBMSWES2_.exit.thread

140:                                              ; preds = %_ZN19OpenColorIO_v2_5deveqERKNS_13GradingRGBMSWES2_.exit14
  %141 = getelementptr inbounds nuw i8, ptr %0, i64 48
  %142 = getelementptr inbounds nuw i8, ptr %1, i64 48
  %143 = load double, ptr %141, align 8, !tbaa !3
  %144 = load double, ptr %142, align 8, !tbaa !3
  %145 = fcmp oeq double %143, %144
  br i1 %145, label %146, label %_ZN19OpenColorIO_v2_5deveqERKNS_13GradingRGBMSWES2_.exit.thread

146:                                              ; preds = %140
  %147 = getelementptr inbounds nuw i8, ptr %0, i64 56
  %148 = load double, ptr %147, align 8, !tbaa !8
  %149 = getelementptr inbounds nuw i8, ptr %1, i64 56
  %150 = load double, ptr %149, align 8, !tbaa !8
  %151 = fcmp oeq double %148, %150
  br i1 %151, label %152, label %_ZN19OpenColorIO_v2_5deveqERKNS_13GradingRGBMSWES2_.exit.thread

152:                                              ; preds = %146
  %153 = getelementptr inbounds nuw i8, ptr %0, i64 64
  %154 = load double, ptr %153, align 8, !tbaa !9
  %155 = getelementptr inbounds nuw i8, ptr %1, i64 64
  %156 = load double, ptr %155, align 8, !tbaa !9
  %157 = fcmp oeq double %154, %156
  br i1 %157, label %158, label %_ZN19OpenColorIO_v2_5deveqERKNS_13GradingRGBMSWES2_.exit.thread

158:                                              ; preds = %152
  %159 = getelementptr inbounds nuw i8, ptr %0, i64 72
  %160 = load double, ptr %159, align 8, !tbaa !10
  %161 = getelementptr inbounds nuw i8, ptr %1, i64 72
  %162 = load double, ptr %161, align 8, !tbaa !10
  %163 = fcmp oeq double %160, %162
  br i1 %163, label %164, label %_ZN19OpenColorIO_v2_5deveqERKNS_13GradingRGBMSWES2_.exit.thread

164:                                              ; preds = %158
  %165 = getelementptr inbounds nuw i8, ptr %0, i64 80
  %166 = load double, ptr %165, align 8, !tbaa !11
  %167 = getelementptr inbounds nuw i8, ptr %1, i64 80
  %168 = load double, ptr %167, align 8, !tbaa !11
  %169 = fcmp oeq double %166, %168
  br i1 %169, label %_ZN19OpenColorIO_v2_5deveqERKNS_13GradingRGBMSWES2_.exit15, label %_ZN19OpenColorIO_v2_5deveqERKNS_13GradingRGBMSWES2_.exit.thread

_ZN19OpenColorIO_v2_5deveqERKNS_13GradingRGBMSWES2_.exit15: ; preds = %164
  %170 = getelementptr inbounds nuw i8, ptr %0, i64 88
  %171 = load double, ptr %170, align 8, !tbaa !12
  %172 = getelementptr inbounds nuw i8, ptr %1, i64 88
  %173 = load double, ptr %172, align 8, !tbaa !12
  %174 = fcmp oeq double %171, %173
  br i1 %174, label %175, label %_ZN19OpenColorIO_v2_5deveqERKNS_13GradingRGBMSWES2_.exit.thread

175:                                              ; preds = %_ZN19OpenColorIO_v2_5deveqERKNS_13GradingRGBMSWES2_.exit15
  %176 = getelementptr inbounds nuw i8, ptr %0, i64 240
  %177 = load double, ptr %176, align 8, !tbaa !13
  %178 = getelementptr inbounds nuw i8, ptr %1, i64 240
  %179 = load double, ptr %178, align 8, !tbaa !13
  %180 = fcmp oeq double %177, %179
  br label %_ZN19OpenColorIO_v2_5deveqERKNS_13GradingRGBMSWES2_.exit.thread

_ZN19OpenColorIO_v2_5deveqERKNS_13GradingRGBMSWES2_.exit.thread: ; preds = %140, %146, %152, %158, %164, %105, %111, %117, %123, %129, %70, %76, %82, %88, %94, %35, %41, %47, %53, %59, %2, %6, %12, %18, %24, %175, %_ZN19OpenColorIO_v2_5deveqERKNS_13GradingRGBMSWES2_.exit15, %_ZN19OpenColorIO_v2_5deveqERKNS_13GradingRGBMSWES2_.exit14, %_ZN19OpenColorIO_v2_5deveqERKNS_13GradingRGBMSWES2_.exit13, %_ZN19OpenColorIO_v2_5deveqERKNS_13GradingRGBMSWES2_.exit12, %_ZN19OpenColorIO_v2_5deveqERKNS_13GradingRGBMSWES2_.exit
  %181 = phi i1 [ false, %_ZN19OpenColorIO_v2_5deveqERKNS_13GradingRGBMSWES2_.exit15 ], [ false, %_ZN19OpenColorIO_v2_5deveqERKNS_13GradingRGBMSWES2_.exit14 ], [ false, %_ZN19OpenColorIO_v2_5deveqERKNS_13GradingRGBMSWES2_.exit13 ], [ false, %_ZN19OpenColorIO_v2_5deveqERKNS_13GradingRGBMSWES2_.exit12 ], [ false, %_ZN19OpenColorIO_v2_5deveqERKNS_13GradingRGBMSWES2_.exit ], [ %180, %175 ], [ false, %24 ], [ false, %18 ], [ false, %12 ], [ false, %6 ], [ false, %2 ], [ false, %59 ], [ false, %53 ], [ false, %47 ], [ false, %41 ], [ false, %35 ], [ false, %94 ], [ false, %88 ], [ false, %82 ], [ false, %76 ], [ false, %70 ], [ false, %129 ], [ false, %123 ], [ false, %117 ], [ false, %111 ], [ false, %105 ], [ false, %164 ], [ false, %158 ], [ false, %152 ], [ false, %146 ], [ false, %140 ]
  ret i1 %181
}